target datalayout = "e-m:e-p270:32:32-p271:32:32-p272:64:64-i64:64-i128:128-f80:128-n8:16:32:64-S128"
target triple = "x86_64-pc-linux-gnu"

%"class.std::vector" = type { %"struct.std::_Vector_base" }
%"struct.std::_Vector_base" = type { %"struct.std::_Vector_base<float, std::allocator<float>>::_Vector_impl" }
%"struct.std::_Vector_base<float, std::allocator<float>>::_Vector_impl" = type { %"struct.std::_Vector_base<float, std::allocator<float>>::_Vector_impl_data" }
%"struct.std::_Vector_base<float, std::allocator<float>>::_Vector_impl_data" = type { ptr, ptr, ptr }
%"class.cv::detail::tracking::online_boosting::BaseClassifier" = type <{ ptr, ptr, i8, [3 x i8], i32, i32, i32, %"class.std::vector", %"class.std::vector", i32, [4 x i8] }>

@_ZN2cv6detail8tracking15online_boosting25WeakClassifierHaarFeatureC1Ev = hidden unnamed_addr alias void (ptr), ptr @_ZN2cv6detail8tracking15online_boosting25WeakClassifierHaarFeatureC2Ev

; Function Attrs: mustprogress uwtable
define hidden void @_ZN2cv6detail8tracking15online_boosting14BaseClassifier24generateRandomClassifierEv(ptr noundef nonnull align 8 dereferenceable(84) %0) #4 align 2 personality ptr @__gxx_personality_v0 {
  %2 = alloca ptr, align 8
  %3 = alloca i32, align 4
  %4 = alloca ptr, align 8
  %5 = alloca i32, align 4
  store ptr %0, ptr %2, align 8, !tbaa !66
  %6 = load ptr, ptr %2, align 8
  call void @llvm.lifetime.start.p0(i64 4, ptr %3) #3
  store i32 0, ptr %3, align 4, !tbaa !8
  br label %7

7:                                                ; preds = %24, %1
  %8 = load i32, ptr %3, align 4, !tbaa !8
  %9 = getelementptr inbounds nuw %"class.cv::detail::tracking::online_boosting::BaseClassifier", ptr %6, i32 0, i32 4
  %10 = load i32, ptr %9, align 4, !tbaa !118
  %11 = getelementptr inbounds nuw %"class.cv::detail::tracking::online_boosting::BaseClassifier", ptr %6, i32 0, i32 9
  %12 = load i32, ptr %11, align 8, !tbaa !119
  %13 = add nsw i32 %10, %12
  %14 = icmp slt i32 %8, %13
  br i1 %14, label %16, label %15

15:                                               ; preds = %7
  call void @llvm.lifetime.end.p0(i64 4, ptr %3) #3
  br label %31

16:                                               ; preds = %7
  %17 = call noalias noundef nonnull ptr @_Znwm(i64 noundef 24) #18
  invoke void @_ZN2cv6detail8tracking15online_boosting25WeakClassifierHaarFeatureC1Ev(ptr noundef nonnull align 8 dereferenceable(24) %17)
          to label %18 unwind label %27

18:                                               ; preds = %16
  %19 = getelementptr inbounds nuw %"class.cv::detail::tracking::online_boosting::BaseClassifier", ptr %6, i32 0, i32 1
  %20 = load ptr, ptr %19, align 8, !tbaa !70
  %21 = load i32, ptr %3, align 4, !tbaa !8
  %22 = sext i32 %21 to i64
  %23 = getelementptr inbounds ptr, ptr %20, i64 %22
  store ptr %17, ptr %23, align 8, !tbaa !120
  br label %24

24:                                               ; preds = %18
  %25 = load i32, ptr %3, align 4, !tbaa !8
  %26 = add nsw i32 %25, 1
  store i32 %26, ptr %3, align 4, !tbaa !8
  br label %7, !llvm.loop !142

27:                                               ; preds = %16
  %28 = landingpad { ptr, i32 }
          cleanup
  %29 = extractvalue { ptr, i32 } %28, 0
  store ptr %29, ptr %4, align 8
  %30 = extractvalue { ptr, i32 } %28, 1
  store i32 %30, ptr %5, align 4
  call void @_ZdlPv(ptr noundef %17) #19
  call void @llvm.lifetime.end.p0(i64 4, ptr %3) #3
  br label %32

31:                                               ; preds = %15
  ret void

32:                                               ; preds = %27
  %33 = load ptr, ptr %4, align 8
  %34 = load i32, ptr %5, align 4
  %35 = insertvalue { ptr, i32 } poison, ptr %33, 0
  %36 = insertvalue { ptr, i32 } %35, i32 %34, 1
  resume { ptr, i32 } %36
}