; Function Attrs: mustprogress uwtable
define hidden void @_ZN2cv6detail8tracking15online_boosting14BaseClassifier24generateRandomClassifierEv(ptr noundef nonnull readonly align 8 captures(none) dereferenceable(84) %0) local_unnamed_addr #3 align 2 personality ptr @__gxx_personality_v0 {
  %2 = getelementptr inbounds nuw i8, ptr %0, i64 20
  %3 = load i32, ptr %2, align 4, !tbaa !116
  %4 = getelementptr inbounds nuw i8, ptr %0, i64 80
  %5 = load i32, ptr %4, align 8, !tbaa !117
  %6 = add nsw i32 %5, %3
  %7 = icmp sgt i32 %6, 0
  br i1 %7, label %.lr.ph, label %._crit_edge

.lr.ph:                                           ; preds = %1
  %8 = getelementptr inbounds nuw i8, ptr %0, i64 8
  %9 = load ptr, ptr %8, align 8
  %wide.trip.count = zext nneg i32 %6 to i64
  br label %10

._crit_edge:                                      ; preds = %29, %1
  ret void

10:                                               ; preds = %.lr.ph, %29
  %indvars.iv = phi i64 [ 0, %.lr.ph ], [ %indvars.iv.next, %29 ]
  %11 = tail call noalias noundef nonnull dereferenceable(24) ptr @_Znwm(i64 noundef 24) #25
  store ptr getelementptr inbounds nuw inrange(-16, 16) (i8, ptr @_ZTVN2cv6detail8tracking15online_boosting25WeakClassifierHaarFeatureE, i64 16), ptr %11, align 8, !tbaa !3
  %12 = getelementptr inbounds nuw i8, ptr %11, i64 8
  store float 1.000000e+00, ptr %12, align 8, !tbaa !139
  %13 = getelementptr inbounds nuw i8, ptr %11, i64 12
  store float 0.000000e+00, ptr %13, align 4, !tbaa !140
  %14 = invoke noalias noundef nonnull dereferenceable(32) ptr @_Znwm(i64 noundef 32) #25
          to label %.noexc unwind label %36

.noexc:                                           ; preds = %10
  store ptr getelementptr inbounds nuw inrange(-16, 16) (i8, ptr @_ZTVN2cv6detail8tracking15online_boosting26EstimatedGaussDistributionE, i64 16), ptr %14, align 8, !tbaa !3
  %15 = getelementptr inbounds nuw i8, ptr %14, i64 8
  store float 0.000000e+00, ptr %15, align 8, !tbaa !127
  %16 = getelementptr inbounds nuw i8, ptr %14, i64 12
  store float 1.000000e+00, ptr %16, align 4, !tbaa !130
  %17 = getelementptr inbounds nuw i8, ptr %14, i64 16
  store float 1.000000e+03, ptr %17, align 8, !tbaa !124
  %18 = getelementptr inbounds nuw i8, ptr %14, i64 24
  store float 0x3F847AE140000000, ptr %18, align 8, !tbaa !126
  %19 = getelementptr inbounds nuw i8, ptr %14, i64 20
  store float 1.000000e+03, ptr %19, align 4, !tbaa !128
  %20 = getelementptr inbounds nuw i8, ptr %14, i64 28
  store float 0x3F847AE140000000, ptr %20, align 4, !tbaa !129
  %21 = invoke noalias noundef nonnull dereferenceable(32) ptr @_Znwm(i64 noundef 32) #25
          to label %.noexc5 unwind label %36

.noexc5:                                          ; preds = %.noexc
  store ptr getelementptr inbounds nuw inrange(-16, 16) (i8, ptr @_ZTVN2cv6detail8tracking15online_boosting26EstimatedGaussDistributionE, i64 16), ptr %21, align 8, !tbaa !3
  %22 = getelementptr inbounds nuw i8, ptr %21, i64 8
  store float 0.000000e+00, ptr %22, align 8, !tbaa !127
  %23 = getelementptr inbounds nuw i8, ptr %21, i64 12
  store float 1.000000e+00, ptr %23, align 4, !tbaa !130
  %24 = getelementptr inbounds nuw i8, ptr %21, i64 16
  store float 1.000000e+03, ptr %24, align 8, !tbaa !124
  %25 = getelementptr inbounds nuw i8, ptr %21, i64 24
  store float 0x3F847AE140000000, ptr %25, align 8, !tbaa !126
  %26 = getelementptr inbounds nuw i8, ptr %21, i64 20
  store float 1.000000e+03, ptr %26, align 4, !tbaa !128
  %27 = getelementptr inbounds nuw i8, ptr %21, i64 28
  store float 0x3F847AE140000000, ptr %27, align 4, !tbaa !129
  %28 = invoke noalias noundef nonnull dereferenceable(32) ptr @_Znwm(i64 noundef 32) #25
          to label %29 unwind label %36

29:                                               ; preds = %.noexc5
  store ptr getelementptr inbounds nuw inrange(-16, 16) (i8, ptr @_ZTVN2cv6detail8tracking15online_boosting19ClassifierThresholdE, i64 16), ptr %28, align 8, !tbaa !3
  %30 = getelementptr inbounds nuw i8, ptr %28, i64 8
  store ptr %14, ptr %30, align 8, !tbaa !123
  %31 = getelementptr inbounds nuw i8, ptr %28, i64 16
  store ptr %21, ptr %31, align 8, !tbaa !131
  %32 = getelementptr inbounds nuw i8, ptr %28, i64 24
  store float 0.000000e+00, ptr %32, align 8, !tbaa !89
  %33 = getelementptr inbounds nuw i8, ptr %28, i64 28
  store i32 0, ptr %33, align 4, !tbaa !86
  %34 = getelementptr inbounds nuw i8, ptr %11, i64 16
  store ptr %28, ptr %34, align 8, !tbaa !83
  store float 0.000000e+00, ptr %22, align 8, !tbaa !127
  store float 1.000000e+00, ptr %23, align 4, !tbaa !130
  store float 0.000000e+00, ptr %15, align 8, !tbaa !127
  store float 1.000000e+00, ptr %16, align 4, !tbaa !130
  %35 = getelementptr inbounds nuw ptr, ptr %9, i64 %indvars.iv
  store ptr %11, ptr %35, align 8, !tbaa !81
  %indvars.iv.next = add nuw nsw i64 %indvars.iv, 1
  %exitcond.not = icmp eq i64 %indvars.iv.next, %wide.trip.count
  br i1 %exitcond.not, label %._crit_edge, label %10, !llvm.loop !146

36:                                               ; preds = %.noexc5, %.noexc, %10
  %37 = landingpad { ptr, i32 }
          cleanup
  tail call void @_ZdlPv(ptr noundef nonnull %11) #26
  resume { ptr, i32 } %37
}